target datalayout = "e-m:e-p270:32:32-p271:32:32-p272:64:64-i64:64-i128:128-f80:128-n8:16:32:64-S128"
target triple = "x86_64-pc-linux-gnu"

%"struct.std::atomic" = type { %"struct.std::__atomic_base" }
%"struct.std::__atomic_base" = type { ptr }
%"struct.std::atomic.8" = type { %"struct.std::__atomic_base.9" }
%"struct.std::__atomic_base.9" = type { i8 }
%"class.pxrInternal_v0_24__pxrReserved__::Vt_CastRegistry" = type { ptr, %"class.tbb::detail::d1::concurrent_unordered_map" }
%"class.tbb::detail::d1::concurrent_unordered_map" = type { %"class.tbb::detail::d1::concurrent_unordered_base" }
%"class.tbb::detail::d1::concurrent_unordered_base" = type { %"struct.std::atomic.0", %"struct.std::atomic.0", float, %"class.tbb::detail::d1::list_node", %"class.tbb::detail::d1::concurrent_unordered_base<tbb::detail::d1::concurrent_unordered_map_traits<std::pair<std::type_index, std::type_index>, pxrInternal_v0_24__pxrReserved__::VtValue (*)(const pxrInternal_v0_24__pxrReserved__::VtValue &), pxrInternal_v0_24__pxrReserved__::TfHash, std::equal_to<std::pair<std::type_index, std::type_index>>, tbb::detail::d1::tbb_allocator<std::pair<const std::pair<std::type_index, std::type_index>, pxrInternal_v0_24__pxrReserved__::VtValue (*)(const pxrInternal_v0_24__pxrReserved__::VtValue &)>>, false>>::unordered_segment_table" }
%"struct.std::atomic.0" = type { %"struct.std::__atomic_base.1" }
%"struct.std::__atomic_base.1" = type { i64 }
%"class.tbb::detail::d1::list_node" = type { %"struct.std::atomic.2", i64 }
%"struct.std::atomic.2" = type { %"struct.std::__atomic_base.3" }
%"struct.std::__atomic_base.3" = type { ptr }
%"class.tbb::detail::d1::concurrent_unordered_base<tbb::detail::d1::concurrent_unordered_map_traits<std::pair<std::type_index, std::type_index>, pxrInternal_v0_24__pxrReserved__::VtValue (*)(const pxrInternal_v0_24__pxrReserved__::VtValue &), pxrInternal_v0_24__pxrReserved__::TfHash, std::equal_to<std::pair<std::type_index, std::type_index>>, tbb::detail::d1::tbb_allocator<std::pair<const std::pair<std::type_index, std::type_index>, pxrInternal_v0_24__pxrReserved__::VtValue (*)(const pxrInternal_v0_24__pxrReserved__::VtValue &)>>, false>>::unordered_segment_table" = type { %"class.tbb::detail::d1::segment_table.base", [7 x i8] }
%"class.tbb::detail::d1::segment_table.base" = type <{ ptr, [8 x i8], %"struct.std::atomic.4", [63 x %"struct.std::atomic.6"], %"struct.std::atomic.0", %"struct.std::atomic.0", %"struct.std::atomic.8" }>
%"struct.std::atomic.4" = type { %"struct.std::__atomic_base.5" }
%"struct.std::__atomic_base.5" = type { ptr }
%"struct.std::atomic.6" = type { %"struct.std::__atomic_base.7" }
%"struct.std::__atomic_base.7" = type { ptr }
%"struct.std::type_index" = type { ptr }
%"class.tbb::detail::d1::solist_iterator" = type { ptr }
%"struct.std::pair.375" = type { %"struct.std::type_index", %"struct.std::type_index" }
%"class.std::type_info" = type { ptr, ptr }

@_ZN32pxrInternal_v0_24__pxrReserved__11TfSingletonINS_15Vt_CastRegistryEE9_instanceE = weak_odr global %"struct.std::atomic" zeroinitializer, comdat, align 8

; Function Attrs: mustprogress nounwind uwtable
define linkonce_odr noundef i32 @_ZStanSt12memory_orderSt23__memory_order_modifier(i32 noundef %0, i32 noundef %1) #1 comdat {
  %3 = alloca i32, align 4
  %4 = alloca i32, align 4
  store i32 %0, ptr %3, align 4
  store i32 %1, ptr %4, align 4
  %5 = load i32, ptr %3, align 4
  %6 = load i32, ptr %4, align 4
  %7 = and i32 %5, %6
  ret i32 %7
}

; Function Attrs: noreturn nounwind uwtable
define linkonce_odr hidden void @__clang_call_terminate(ptr noundef %0) #11 comdat {
  %2 = call ptr @__cxa_begin_catch(ptr %0) #10
  call void @_ZSt9terminatev() #18
  unreachable
}

; Function Attrs: mustprogress nounwind uwtable
define linkonce_odr void @_ZN3tbb6detail2d115solist_iteratorINS1_25concurrent_unordered_baseINS1_31concurrent_unordered_map_traitsISt4pairISt10type_indexS6_EPFN32pxrInternal_v0_24__pxrReserved__7VtValueERKS9_ENS8_6TfHashESt8equal_toIS7_ENS1_13tbb_allocatorIS5_IKS7_SD_EEELb0EEEEESJ_EC2EPNS1_10value_nodeISJ_mEE(ptr noundef nonnull align 8 dereferenceable(8) %0, ptr noundef %1) unnamed_addr #1 comdat align 2 {
  %3 = alloca ptr, align 8
  %4 = alloca ptr, align 8
  store ptr %0, ptr %3, align 8
  store ptr %1, ptr %4, align 8
  %5 = load ptr, ptr %3, align 8
  %6 = getelementptr inbounds nuw %"class.tbb::detail::d1::solist_iterator", ptr %5, i32 0, i32 0
  %7 = load ptr, ptr %4, align 8
  store ptr %7, ptr %6, align 8
  ret void
}

; Function Attrs: mustprogress nounwind uwtable
define linkonce_odr noundef ptr @_ZNKSt6atomicIPN32pxrInternal_v0_24__pxrReserved__15Vt_CastRegistryEE4loadESt12memory_order(ptr noundef nonnull align 8 dereferenceable(8) %0, i32 noundef %1) #1 comdat align 2 {
  %3 = alloca ptr, align 8
  %4 = alloca i32, align 4
  %5 = alloca i32, align 4
  %6 = alloca ptr, align 8
  %7 = alloca ptr, align 8
  %8 = alloca i32, align 4
  store ptr %0, ptr %7, align 8
  store i32 %1, ptr %8, align 4
  %9 = load ptr, ptr %7, align 8
  %10 = getelementptr inbounds nuw %"struct.std::atomic", ptr %9, i32 0, i32 0
  %11 = load i32, ptr %8, align 4
  store ptr %10, ptr %3, align 8
  store i32 %11, ptr %4, align 4
  %12 = load ptr, ptr %3, align 8
  %13 = load i32, ptr %4, align 4
  %14 = call noundef i32 @_ZStanSt12memory_orderSt23__memory_order_modifier(i32 noundef %13, i32 noundef 65535)
  store i32 %14, ptr %5, align 4
  %15 = load i32, ptr %4, align 4
  switch i32 %15, label %16 [
    i32 1, label %18
    i32 2, label %18
    i32 5, label %20
  ]

16:                                               ; preds = %2
  %17 = load atomic i64, ptr %12 monotonic, align 8
  store i64 %17, ptr %6, align 8
  br label %22

18:                                               ; preds = %2, %2
  %19 = load atomic i64, ptr %12 acquire, align 8
  store i64 %19, ptr %6, align 8
  br label %22

20:                                               ; preds = %2
  %21 = load atomic i64, ptr %12 seq_cst, align 8
  store i64 %21, ptr %6, align 8
  br label %22

22:                                               ; preds = %20, %18, %16
  %23 = load ptr, ptr %6, align 8
  ret ptr %23
}

; Function Attrs: mustprogress nounwind uwtable
define linkonce_odr noundef ptr @_ZNKSt9type_info4nameEv(ptr noundef nonnull align 8 dereferenceable(16) %0) #1 comdat align 2 {
  %2 = alloca ptr, align 8
  store ptr %0, ptr %2, align 8
  %3 = load ptr, ptr %2, align 8
  %4 = getelementptr inbounds nuw %"class.std::type_info", ptr %3, i32 0, i32 1
  %5 = load ptr, ptr %4, align 8
  %6 = getelementptr inbounds i8, ptr %5, i64 0
  %7 = load i8, ptr %6, align 1
  %8 = sext i8 %7 to i32
  %9 = icmp eq i32 %8, 42
  br i1 %9, label %10, label %14

10:                                               ; preds = %1
  %11 = getelementptr inbounds nuw %"class.std::type_info", ptr %3, i32 0, i32 1
  %12 = load ptr, ptr %11, align 8
  %13 = getelementptr inbounds i8, ptr %12, i64 1
  br label %17

14:                                               ; preds = %1
  %15 = getelementptr inbounds nuw %"class.std::type_info", ptr %3, i32 0, i32 1
  %16 = load ptr, ptr %15, align 8
  br label %17

17:                                               ; preds = %14, %10
  %18 = phi ptr [ %13, %10 ], [ %16, %14 ]
  ret ptr %18
}

; Function Attrs: mustprogress nounwind uwtable
define linkonce_odr noundef zeroext i1 @_ZN3tbb6detail2d1neINS1_25concurrent_unordered_baseINS1_31concurrent_unordered_map_traitsISt4pairISt10type_indexS6_EPFN32pxrInternal_v0_24__pxrReserved__7VtValueERKS9_ENS8_6TfHashESt8equal_toIS7_ENS1_13tbb_allocatorIS5_IKS7_SD_EEELb0EEEEESJ_SJ_EEbRKNS1_15solist_iteratorIT_T0_EERKNSN_ISO_T1_EE(ptr noundef nonnull align 8 dereferenceable(8) %0, ptr noundef nonnull align 8 dereferenceable(8) %1) #1 comdat {
  %3 = alloca ptr, align 8
  %4 = alloca ptr, align 8
  store ptr %0, ptr %3, align 8
  store ptr %1, ptr %4, align 8
  %5 = load ptr, ptr %3, align 8
  %6 = getelementptr inbounds nuw %"class.tbb::detail::d1::solist_iterator", ptr %5, i32 0, i32 0
  %7 = load ptr, ptr %6, align 8
  %8 = load ptr, ptr %4, align 8
  %9 = getelementptr inbounds nuw %"class.tbb::detail::d1::solist_iterator", ptr %8, i32 0, i32 0
  %10 = load ptr, ptr %9, align 8
  %11 = icmp ne ptr %7, %10
  ret i1 %11
}

; Function Attrs: mustprogress nounwind uwtable
define linkonce_odr void @_ZN3tbb6detail2d125concurrent_unordered_baseINS1_31concurrent_unordered_map_traitsISt4pairISt10type_indexS5_EPFN32pxrInternal_v0_24__pxrReserved__7VtValueERKS8_ENS7_6TfHashESt8equal_toIS6_ENS1_13tbb_allocatorIS4_IKS6_SC_EEELb0EEEE3endEv(ptr dead_on_unwind noalias writable sret(%"class.tbb::detail::d1::solist_iterator") align 8 %0, ptr noundef nonnull align 8 dereferenceable(592) %1) #1 comdat align 2 personality ptr @__gxx_personality_v0 {
  %3 = alloca ptr, align 8
  %4 = alloca ptr, align 8
  store ptr %0, ptr %3, align 8
  store ptr %1, ptr %4, align 8
  invoke void @_ZN3tbb6detail2d115solist_iteratorINS1_25concurrent_unordered_baseINS1_31concurrent_unordered_map_traitsISt4pairISt10type_indexS6_EPFN32pxrInternal_v0_24__pxrReserved__7VtValueERKS9_ENS8_6TfHashESt8equal_toIS7_ENS1_13tbb_allocatorIS5_IKS7_SD_EEELb0EEEEESJ_EC2EPNS1_10value_nodeISJ_mEE(ptr noundef nonnull align 8 dereferenceable(8) %0, ptr noundef null)
          to label %5 unwind label %6

5:                                                ; preds = %2
  ret void

6:                                                ; preds = %2
  %7 = landingpad { ptr, i32 }
          catch ptr null
  %8 = extractvalue { ptr, i32 } %7, 0
  call void @__clang_call_terminate(ptr %8) #18
  unreachable
}

; Function Attrs: mustprogress uwtable
define linkonce_odr void @_ZN3tbb6detail2d125concurrent_unordered_baseINS1_31concurrent_unordered_map_traitsISt4pairISt10type_indexS5_EPFN32pxrInternal_v0_24__pxrReserved__7VtValueERKS8_ENS7_6TfHashESt8equal_toIS6_ENS1_13tbb_allocatorIS4_IKS6_SC_EEELb0EEEE4findERSH_(ptr dead_on_unwind noalias writable sret(%"class.tbb::detail::d1::solist_iterator") align 8 %0, ptr noundef nonnull align 8 dereferenceable(592) %1, ptr noundef nonnull align 8 dereferenceable(16) %2) #0 comdat align 2 {
  %4 = alloca ptr, align 8
  %5 = alloca ptr, align 8
  %6 = alloca ptr, align 8
  %7 = alloca ptr, align 8
  store ptr %0, ptr %4, align 8
  store ptr %1, ptr %5, align 8
  store ptr %2, ptr %6, align 8
  %8 = load ptr, ptr %5, align 8
  %9 = load ptr, ptr %6, align 8
  %10 = call noundef ptr @_ZN3tbb6detail2d125concurrent_unordered_baseINS1_31concurrent_unordered_map_traitsISt4pairISt10type_indexS5_EPFN32pxrInternal_v0_24__pxrReserved__7VtValueERKS8_ENS7_6TfHashESt8equal_toIS6_ENS1_13tbb_allocatorIS4_IKS6_SC_EEELb0EEEE13internal_findIS6_EEPNS1_10value_nodeISI_mEERKT_(ptr noundef nonnull align 8 dereferenceable(592) %8, ptr noundef nonnull align 8 dereferenceable(16) %9)
  store ptr %10, ptr %7, align 8
  %11 = load ptr, ptr %7, align 8
  %12 = icmp eq ptr %11, null
  br i1 %12, label %13, label %14

13:                                               ; preds = %3
  call void @_ZN3tbb6detail2d125concurrent_unordered_baseINS1_31concurrent_unordered_map_traitsISt4pairISt10type_indexS5_EPFN32pxrInternal_v0_24__pxrReserved__7VtValueERKS8_ENS7_6TfHashESt8equal_toIS6_ENS1_13tbb_allocatorIS4_IKS6_SC_EEELb0EEEE3endEv(ptr dead_on_unwind writable sret(%"class.tbb::detail::d1::solist_iterator") align 8 %0, ptr noundef nonnull align 8 dereferenceable(592) %8) #10
  br label %16

14:                                               ; preds = %3
  %15 = load ptr, ptr %7, align 8
  call void @_ZN3tbb6detail2d115solist_iteratorINS1_25concurrent_unordered_baseINS1_31concurrent_unordered_map_traitsISt4pairISt10type_indexS6_EPFN32pxrInternal_v0_24__pxrReserved__7VtValueERKS9_ENS8_6TfHashESt8equal_toIS7_ENS1_13tbb_allocatorIS5_IKS7_SD_EEELb0EEEEESJ_EC2EPNS1_10value_nodeISJ_mEE(ptr noundef nonnull align 8 dereferenceable(8) %0, ptr noundef %15)
  br label %16

16:                                               ; preds = %14, %13
  ret void
}

; Function Attrs: mustprogress nounwind uwtable
define linkonce_odr void @_ZNSt4pairISt10type_indexS0_EC2IRS0_S3_TnNSt9enable_ifIXaaclsr5_PCCPE22_MoveConstructiblePairIT_T0_EEclsr5_PCCPE30_ImplicitlyMoveConvertiblePairIS5_S6_EEEbE4typeELb1EEEOS5_OS6_(ptr noundef nonnull align 8 dereferenceable(16) %0, ptr noundef nonnull align 8 dereferenceable(8) %1, ptr noundef nonnull align 8 dereferenceable(8) %2) unnamed_addr #1 comdat align 2 {
  %4 = alloca ptr, align 8
  %5 = alloca ptr, align 8
  %6 = alloca ptr, align 8
  store ptr %0, ptr %4, align 8
  store ptr %1, ptr %5, align 8
  store ptr %2, ptr %6, align 8
  %7 = load ptr, ptr %4, align 8
  %8 = getelementptr inbounds nuw %"struct.std::pair.375", ptr %7, i32 0, i32 0
  %9 = load ptr, ptr %5, align 8
  call void @llvm.memcpy.p0.p0.i64(ptr align 8 %8, ptr align 8 %9, i64 8, i1 false)
  %10 = getelementptr inbounds nuw %"struct.std::pair.375", ptr %7, i32 0, i32 1
  %11 = load ptr, ptr %6, align 8
  call void @llvm.memcpy.p0.p0.i64(ptr align 8 %10, ptr align 8 %11, i64 8, i1 false)
  ret void
}

; Function Attrs: mustprogress nounwind uwtable
define linkonce_odr void @_ZNSt10type_indexC2ERKSt9type_info(ptr noundef nonnull align 8 dereferenceable(8) %0, ptr noundef nonnull align 8 dereferenceable(16) %1) unnamed_addr #1 comdat align 2 {
  %3 = alloca ptr, align 8
  %4 = alloca ptr, align 8
  store ptr %0, ptr %3, align 8
  store ptr %1, ptr %4, align 8
  %5 = load ptr, ptr %3, align 8
  %6 = getelementptr inbounds nuw %"struct.std::type_index", ptr %5, i32 0, i32 0
  %7 = load ptr, ptr %4, align 8
  store ptr %7, ptr %6, align 8
  ret void
}

; Function Attrs: mustprogress uwtable
define weak_odr noundef nonnull align 8 dereferenceable(600) ptr @_ZN32pxrInternal_v0_24__pxrReserved__11TfSingletonINS_15Vt_CastRegistryEE11GetInstanceEv() #0 comdat align 2 {
  %1 = alloca ptr, align 8
  %2 = call noundef ptr @_ZNKSt6atomicIPN32pxrInternal_v0_24__pxrReserved__15Vt_CastRegistryEE4loadESt12memory_order(ptr noundef nonnull align 8 dereferenceable(8) @_ZN32pxrInternal_v0_24__pxrReserved__11TfSingletonINS_15Vt_CastRegistryEE9_instanceE, i32 noundef 5) #10
  store ptr %2, ptr %1, align 8
  %3 = load ptr, ptr %1, align 8
  %4 = icmp ne ptr %3, null
  br i1 %4, label %7, label %5

5:                                                ; preds = %0
  %6 = call noundef ptr @_ZN32pxrInternal_v0_24__pxrReserved__11TfSingletonINS_15Vt_CastRegistryEE15_CreateInstanceERSt6atomicIPS1_E(ptr noundef nonnull align 8 dereferenceable(8) @_ZN32pxrInternal_v0_24__pxrReserved__11TfSingletonINS_15Vt_CastRegistryEE9_instanceE)
  store ptr %6, ptr %1, align 8
  br label %7

7:                                                ; preds = %5, %0
  %8 = load ptr, ptr %1, align 8
  ret ptr %8
}

; Function Attrs: mustprogress nounwind uwtable
define linkonce_odr noundef zeroext i1 @_ZNKSt9type_infoeqERKS_(ptr noundef nonnull align 8 dereferenceable(16) %0, ptr noundef nonnull align 8 dereferenceable(16) %1) #1 comdat align 2 {
  %3 = alloca i1, align 1
  %4 = alloca ptr, align 8
  %5 = alloca ptr, align 8
  store ptr %0, ptr %4, align 8
  store ptr %1, ptr %5, align 8
  %6 = load ptr, ptr %4, align 8
  %7 = getelementptr inbounds nuw %"class.std::type_info", ptr %6, i32 0, i32 1
  %8 = load ptr, ptr %7, align 8
  %9 = load ptr, ptr %5, align 8
  %10 = getelementptr inbounds nuw %"class.std::type_info", ptr %9, i32 0, i32 1
  %11 = load ptr, ptr %10, align 8
  %12 = icmp eq ptr %8, %11
  br i1 %12, label %13, label %14

13:                                               ; preds = %2
  store i1 true, ptr %3, align 1
  br label %30

14:                                               ; preds = %2
  %15 = getelementptr inbounds nuw %"class.std::type_info", ptr %6, i32 0, i32 1
  %16 = load ptr, ptr %15, align 8
  %17 = getelementptr inbounds i8, ptr %16, i64 0
  %18 = load i8, ptr %17, align 1
  %19 = sext i8 %18 to i32
  %20 = icmp ne i32 %19, 42
  br i1 %20, label %21, label %28

21:                                               ; preds = %14
  %22 = getelementptr inbounds nuw %"class.std::type_info", ptr %6, i32 0, i32 1
  %23 = load ptr, ptr %22, align 8
  %24 = load ptr, ptr %5, align 8
  %25 = call noundef ptr @_ZNKSt9type_info4nameEv(ptr noundef nonnull align 8 dereferenceable(16) %24) #10
  %26 = call i32 @strcmp(ptr noundef %23, ptr noundef %25) #10
  %27 = icmp eq i32 %26, 0
  br label %28

28:                                               ; preds = %21, %14
  %29 = phi i1 [ false, %14 ], [ %27, %21 ]
  store i1 %29, ptr %3, align 1
  br label %30

30:                                               ; preds = %28, %13
  %31 = load i1, ptr %3, align 1
  ret i1 %31
}

; Function Attrs: mustprogress uwtable
define linkonce_odr noundef zeroext i1 @_ZN32pxrInternal_v0_24__pxrReserved__15Vt_CastRegistry7CanCastERKSt9type_infoS3_(ptr noundef nonnull align 8 dereferenceable(600) %0, ptr noundef nonnull align 8 dereferenceable(16) %1, ptr noundef nonnull align 8 dereferenceable(16) %2) #0 comdat align 2 {
  %4 = alloca ptr, align 8
  %5 = alloca ptr, align 8
  %6 = alloca ptr, align 8
  %7 = alloca %"struct.std::type_index", align 8
  %8 = alloca %"struct.std::type_index", align 8
  %9 = alloca %"class.tbb::detail::d1::solist_iterator", align 8
  %10 = alloca %"struct.std::pair.375", align 8
  %11 = alloca %"class.tbb::detail::d1::solist_iterator", align 8
  store ptr %0, ptr %4, align 8
  store ptr %1, ptr %5, align 8
  store ptr %2, ptr %6, align 8
  %12 = load ptr, ptr %4, align 8
  %13 = load ptr, ptr %5, align 8
  call void @_ZNSt10type_indexC2ERKSt9type_info(ptr noundef nonnull align 8 dereferenceable(8) %7, ptr noundef nonnull align 8 dereferenceable(16) %13) #10
  %14 = load ptr, ptr %6, align 8
  call void @_ZNSt10type_indexC2ERKSt9type_info(ptr noundef nonnull align 8 dereferenceable(8) %8, ptr noundef nonnull align 8 dereferenceable(16) %14) #10
  %15 = getelementptr inbounds nuw %"class.pxrInternal_v0_24__pxrReserved__::Vt_CastRegistry", ptr %12, i32 0, i32 1
  call void @_ZNSt4pairISt10type_indexS0_EC2IRS0_S3_TnNSt9enable_ifIXaaclsr5_PCCPE22_MoveConstructiblePairIT_T0_EEclsr5_PCCPE30_ImplicitlyMoveConvertiblePairIS5_S6_EEEbE4typeELb1EEEOS5_OS6_(ptr noundef nonnull align 8 dereferenceable(16) %10, ptr noundef nonnull align 8 dereferenceable(8) %7, ptr noundef nonnull align 8 dereferenceable(8) %8)
  call void @_ZN3tbb6detail2d125concurrent_unordered_baseINS1_31concurrent_unordered_map_traitsISt4pairISt10type_indexS5_EPFN32pxrInternal_v0_24__pxrReserved__7VtValueERKS8_ENS7_6TfHashESt8equal_toIS6_ENS1_13tbb_allocatorIS4_IKS6_SC_EEELb0EEEE4findERSH_(ptr dead_on_unwind writable sret(%"class.tbb::detail::d1::solist_iterator") align 8 %9, ptr noundef nonnull align 8 dereferenceable(592) %15, ptr noundef nonnull align 8 dereferenceable(16) %10)
  %16 = getelementptr inbounds nuw %"class.pxrInternal_v0_24__pxrReserved__::Vt_CastRegistry", ptr %12, i32 0, i32 1
  call void @_ZN3tbb6detail2d125concurrent_unordered_baseINS1_31concurrent_unordered_map_traitsISt4pairISt10type_indexS5_EPFN32pxrInternal_v0_24__pxrReserved__7VtValueERKS8_ENS7_6TfHashESt8equal_toIS6_ENS1_13tbb_allocatorIS4_IKS6_SC_EEELb0EEEE3endEv(ptr dead_on_unwind writable sret(%"class.tbb::detail::d1::solist_iterator") align 8 %11, ptr noundef nonnull align 8 dereferenceable(592) %16) #10
  %17 = call noundef zeroext i1 @_ZN3tbb6detail2d1neINS1_25concurrent_unordered_baseINS1_31concurrent_unordered_map_traitsISt4pairISt10type_indexS6_EPFN32pxrInternal_v0_24__pxrReserved__7VtValueERKS9_ENS8_6TfHashESt8equal_toIS7_ENS1_13tbb_allocatorIS5_IKS7_SD_EEELb0EEEEESJ_SJ_EEbRKNS1_15solist_iteratorIT_T0_EERKNSN_ISO_T1_EE(ptr noundef nonnull align 8 dereferenceable(8) %9, ptr noundef nonnull align 8 dereferenceable(8) %11)
  ret i1 %17
}

; Function Attrs: mustprogress uwtable
define linkonce_odr noundef nonnull align 8 dereferenceable(600) ptr @_ZN32pxrInternal_v0_24__pxrReserved__15Vt_CastRegistry11GetInstanceEv() #0 comdat align 2 {
  %1 = call noundef nonnull align 8 dereferenceable(600) ptr @_ZN32pxrInternal_v0_24__pxrReserved__11TfSingletonINS_15Vt_CastRegistryEE11GetInstanceEv()
  ret ptr %1
}

; Function Attrs: mustprogress nounwind uwtable
define linkonce_odr noundef zeroext i1 @_ZN32pxrInternal_v0_24__pxrReserved__17TfSafeTypeCompareERKSt9type_infoS2_(ptr noundef nonnull align 8 dereferenceable(16) %0, ptr noundef nonnull align 8 dereferenceable(16) %1) #1 comdat {
  %3 = alloca ptr, align 8
  %4 = alloca ptr, align 8
  store ptr %0, ptr %3, align 8
  store ptr %1, ptr %4, align 8
  %5 = load ptr, ptr %3, align 8
  %6 = load ptr, ptr %4, align 8
  %7 = call noundef zeroext i1 @_ZNKSt9type_infoeqERKS_(ptr noundef nonnull align 8 dereferenceable(16) %5, ptr noundef nonnull align 8 dereferenceable(16) %6) #10
  ret i1 %7
}

; Function Attrs: mustprogress uwtable
define noundef zeroext i1 @_ZN32pxrInternal_v0_24__pxrReserved__7VtValue8_CanCastERKSt9type_infoS3_(ptr noundef nonnull align 8 dereferenceable(16) %0, ptr noundef nonnull align 8 dereferenceable(16) %1) #0 align 2 {
  %3 = alloca i1, align 1
  %4 = alloca ptr, align 8
  %5 = alloca ptr, align 8
  store ptr %0, ptr %4, align 8
  store ptr %1, ptr %5, align 8
  %6 = load ptr, ptr %4, align 8
  %7 = load ptr, ptr %5, align 8
  %8 = call noundef zeroext i1 @_ZN32pxrInternal_v0_24__pxrReserved__17TfSafeTypeCompareERKSt9type_infoS2_(ptr noundef nonnull align 8 dereferenceable(16) %6, ptr noundef nonnull align 8 dereferenceable(16) %7)
  br i1 %8, label %9, label %10

9:                                                ; preds = %2
  store i1 true, ptr %3, align 1
  br label %15

10:                                               ; preds = %2
  %11 = call noundef nonnull align 8 dereferenceable(600) ptr @_ZN32pxrInternal_v0_24__pxrReserved__15Vt_CastRegistry11GetInstanceEv()
  %12 = load ptr, ptr %4, align 8
  %13 = load ptr, ptr %5, align 8
  %14 = call noundef zeroext i1 @_ZN32pxrInternal_v0_24__pxrReserved__15Vt_CastRegistry7CanCastERKSt9type_infoS3_(ptr noundef nonnull align 8 dereferenceable(600) %11, ptr noundef nonnull align 8 dereferenceable(16) %12, ptr noundef nonnull align 8 dereferenceable(16) %13)
  store i1 %14, ptr %3, align 1
  br label %15

15:                                               ; preds = %10, %9
  %16 = load i1, ptr %3, align 1
  ret i1 %16
}