; Function Attrs: mustprogress uwtable
define noundef zeroext i1 @_ZN32pxrInternal_v0_24__pxrReserved__7VtValue8_CanCastERKSt9type_infoS3_(ptr noundef nonnull align 8 dereferenceable(16) %0, ptr noundef nonnull align 8 dereferenceable(16) %1) local_unnamed_addr #0 align 2 personality ptr @__gxx_personality_v0 {
  %3 = alloca %"struct.std::pair.375", align 8
  %4 = getelementptr inbounds nuw i8, ptr %0, i64 8
  %5 = load ptr, ptr %4, align 8
  %6 = getelementptr inbounds nuw i8, ptr %1, i64 8
  %7 = load ptr, ptr %6, align 8
  %8 = icmp eq ptr %5, %7
  br i1 %8, label %_ZN32pxrInternal_v0_24__pxrReserved__17TfSafeTypeCompareERKSt9type_infoS2_.exit.thread, label %9

9:                                                ; preds = %2
  %10 = load i8, ptr %5, align 1
  %.not.i.i = icmp eq i8 %10, 42
  br i1 %.not.i.i, label %_ZN32pxrInternal_v0_24__pxrReserved__17TfSafeTypeCompareERKSt9type_infoS2_.exit.thread8, label %_ZN32pxrInternal_v0_24__pxrReserved__17TfSafeTypeCompareERKSt9type_infoS2_.exit

_ZN32pxrInternal_v0_24__pxrReserved__17TfSafeTypeCompareERKSt9type_infoS2_.exit: ; preds = %9
  %11 = load i8, ptr %7, align 1
  %12 = icmp eq i8 %11, 42
  %.idx.i.i.i = zext i1 %12 to i64
  %13 = getelementptr inbounds i8, ptr %7, i64 %.idx.i.i.i
  %14 = tail call i32 @strcmp(ptr noundef nonnull dereferenceable(1) %5, ptr noundef nonnull dereferenceable(1) %13) #16
  %15 = icmp eq i32 %14, 0
  br i1 %15, label %_ZN32pxrInternal_v0_24__pxrReserved__17TfSafeTypeCompareERKSt9type_infoS2_.exit.thread, label %_ZN32pxrInternal_v0_24__pxrReserved__17TfSafeTypeCompareERKSt9type_infoS2_.exit.thread8

_ZN32pxrInternal_v0_24__pxrReserved__17TfSafeTypeCompareERKSt9type_infoS2_.exit.thread8: ; preds = %9, %_ZN32pxrInternal_v0_24__pxrReserved__17TfSafeTypeCompareERKSt9type_infoS2_.exit
  %16 = load atomic i64, ptr @_ZN32pxrInternal_v0_24__pxrReserved__11TfSingletonINS_15Vt_CastRegistryEE9_instanceE seq_cst, align 8
  %.0.i.i.i = inttoptr i64 %16 to ptr
  %.not.i.i5 = icmp eq i64 %16, 0
  br i1 %.not.i.i5, label %17, label %_ZN32pxrInternal_v0_24__pxrReserved__15Vt_CastRegistry11GetInstanceEv.exit

17:                                               ; preds = %_ZN32pxrInternal_v0_24__pxrReserved__17TfSafeTypeCompareERKSt9type_infoS2_.exit.thread8
  %18 = tail call noundef ptr @_ZN32pxrInternal_v0_24__pxrReserved__11TfSingletonINS_15Vt_CastRegistryEE15_CreateInstanceERSt6atomicIPS1_E(ptr noundef nonnull align 8 dereferenceable(8) @_ZN32pxrInternal_v0_24__pxrReserved__11TfSingletonINS_15Vt_CastRegistryEE9_instanceE)
  br label %_ZN32pxrInternal_v0_24__pxrReserved__15Vt_CastRegistry11GetInstanceEv.exit

_ZN32pxrInternal_v0_24__pxrReserved__15Vt_CastRegistry11GetInstanceEv.exit: ; preds = %_ZN32pxrInternal_v0_24__pxrReserved__17TfSafeTypeCompareERKSt9type_infoS2_.exit.thread8, %17
  %.0.i.i6 = phi ptr [ %.0.i.i.i, %_ZN32pxrInternal_v0_24__pxrReserved__17TfSafeTypeCompareERKSt9type_infoS2_.exit.thread8 ], [ %18, %17 ]
  call void @llvm.lifetime.start.p0(i64 16, ptr nonnull %3)
  %19 = getelementptr inbounds nuw i8, ptr %.0.i.i6, i64 8
  %20 = ptrtoint ptr %0 to i64
  store i64 %20, ptr %3, align 8
  %21 = getelementptr inbounds nuw i8, ptr %3, i64 8
  %22 = ptrtoint ptr %1 to i64
  store i64 %22, ptr %21, align 8
  %23 = call noundef ptr @_ZN3tbb6detail2d125concurrent_unordered_baseINS1_31concurrent_unordered_map_traitsISt4pairISt10type_indexS5_EPFN32pxrInternal_v0_24__pxrReserved__7VtValueERKS8_ENS7_6TfHashESt8equal_toIS6_ENS1_13tbb_allocatorIS4_IKS6_SC_EEELb0EEEE13internal_findIS6_EEPNS1_10value_nodeISI_mEERKT_(ptr noundef nonnull align 8 dereferenceable(592) %19, ptr noundef nonnull align 8 dereferenceable(16) %3), !noalias !43
  %24 = icmp ne ptr %23, null
  call void @llvm.lifetime.end.p0(i64 16, ptr nonnull %3)
  br label %_ZN32pxrInternal_v0_24__pxrReserved__17TfSafeTypeCompareERKSt9type_infoS2_.exit.thread

_ZN32pxrInternal_v0_24__pxrReserved__17TfSafeTypeCompareERKSt9type_infoS2_.exit.thread: ; preds = %2, %_ZN32pxrInternal_v0_24__pxrReserved__17TfSafeTypeCompareERKSt9type_infoS2_.exit, %_ZN32pxrInternal_v0_24__pxrReserved__15Vt_CastRegistry11GetInstanceEv.exit
  %.0 = phi i1 [ %24, %_ZN32pxrInternal_v0_24__pxrReserved__15Vt_CastRegistry11GetInstanceEv.exit ], [ true, %_ZN32pxrInternal_v0_24__pxrReserved__17TfSafeTypeCompareERKSt9type_infoS2_.exit ], [ true, %2 ]
  ret i1 %.0
}